target datalayout = "e-m:e-p270:32:32-p271:32:32-p272:64:64-i64:64-i128:128-f80:128-n8:16:32:64-S128"
target triple = "x86_64-pc-linux-gnu"

%union.pthread_mutex_t = type { %struct.__pthread_mutex_s }
%struct.__pthread_mutex_s = type { i32, i32, i32, i32, i32, i16, i16, %struct.__pthread_internal_list }
%struct.__pthread_internal_list = type { ptr, ptr }
%union.pthread_cond_t = type { %struct.__pthread_cond_s }
%struct.__pthread_cond_s = type { %union.__atomic_wide_counter, %union.__atomic_wide_counter, [2 x i32], [2 x i32], i32, i32, [2 x i32] }
%union.__atomic_wide_counter = type { i64 }
%struct.uv__work = type { ptr, ptr, ptr, [2 x ptr] }

@mutex = internal global %union.pthread_mutex_t zeroinitializer, align 8
@cond = internal global %union.pthread_cond_t zeroinitializer, align 8
@once = internal global i32 0, align 4
@slow_io_pending_wq = internal global [2 x ptr] zeroinitializer, align 16
@run_slow_work_message = internal global [2 x ptr] zeroinitializer, align 16
@wq = internal global [2 x ptr] zeroinitializer, align 16
@idle_threads = internal global i32 0, align 4

; Function Attrs: nounwind uwtable
define internal void @post(ptr noundef %0, i32 noundef %1) #0 {
  %3 = alloca ptr, align 8
  %4 = alloca i32, align 4
  store ptr %0, ptr %3, align 8, !tbaa !13
  store i32 %1, ptr %4, align 4, !tbaa !4
  call void @uv_mutex_lock(ptr noundef @mutex)
  %5 = load i32, ptr %4, align 4, !tbaa !4
  %6 = icmp eq i32 %5, 2
  br i1 %6, label %7, label %25

7:                                                ; preds = %2
  br label %8

8:                                                ; preds = %7
  %9 = load ptr, ptr %3, align 8, !tbaa !13
  %10 = getelementptr inbounds [2 x ptr], ptr %9, i64 0, i64 0
  store ptr @slow_io_pending_wq, ptr %10, align 8, !tbaa !13
  %11 = load ptr, ptr getelementptr inbounds ([2 x ptr], ptr @slow_io_pending_wq, i64 0, i64 1), align 8, !tbaa !13
  %12 = load ptr, ptr %3, align 8, !tbaa !13
  %13 = getelementptr inbounds [2 x ptr], ptr %12, i64 0, i64 1
  store ptr %11, ptr %13, align 8, !tbaa !13
  %14 = load ptr, ptr %3, align 8, !tbaa !13
  %15 = load ptr, ptr %3, align 8, !tbaa !13
  %16 = getelementptr inbounds [2 x ptr], ptr %15, i64 0, i64 1
  %17 = load ptr, ptr %16, align 8, !tbaa !13
  %18 = getelementptr inbounds [2 x ptr], ptr %17, i64 0, i64 0
  store ptr %14, ptr %18, align 8, !tbaa !13
  %19 = load ptr, ptr %3, align 8, !tbaa !13
  store ptr %19, ptr getelementptr inbounds ([2 x ptr], ptr @slow_io_pending_wq, i64 0, i64 1), align 8, !tbaa !13
  br label %20

20:                                               ; preds = %8
  %21 = load ptr, ptr @run_slow_work_message, align 16, !tbaa !13
  %22 = icmp eq ptr @run_slow_work_message, %21
  br i1 %22, label %24, label %23

23:                                               ; preds = %20
  call void @uv_mutex_unlock(ptr noundef @mutex)
  br label %43

24:                                               ; preds = %20
  store ptr @run_slow_work_message, ptr %3, align 8, !tbaa !13
  br label %25

25:                                               ; preds = %24, %2
  br label %26

26:                                               ; preds = %25
  %27 = load ptr, ptr %3, align 8, !tbaa !13
  %28 = getelementptr inbounds [2 x ptr], ptr %27, i64 0, i64 0
  store ptr @wq, ptr %28, align 8, !tbaa !13
  %29 = load ptr, ptr getelementptr inbounds ([2 x ptr], ptr @wq, i64 0, i64 1), align 8, !tbaa !13
  %30 = load ptr, ptr %3, align 8, !tbaa !13
  %31 = getelementptr inbounds [2 x ptr], ptr %30, i64 0, i64 1
  store ptr %29, ptr %31, align 8, !tbaa !13
  %32 = load ptr, ptr %3, align 8, !tbaa !13
  %33 = load ptr, ptr %3, align 8, !tbaa !13
  %34 = getelementptr inbounds [2 x ptr], ptr %33, i64 0, i64 1
  %35 = load ptr, ptr %34, align 8, !tbaa !13
  %36 = getelementptr inbounds [2 x ptr], ptr %35, i64 0, i64 0
  store ptr %32, ptr %36, align 8, !tbaa !13
  %37 = load ptr, ptr %3, align 8, !tbaa !13
  store ptr %37, ptr getelementptr inbounds ([2 x ptr], ptr @wq, i64 0, i64 1), align 8, !tbaa !13
  br label %38

38:                                               ; preds = %26
  %39 = load i32, ptr @idle_threads, align 4, !tbaa !4
  %40 = icmp ugt i32 %39, 0
  br i1 %40, label %41, label %42

41:                                               ; preds = %38
  call void @uv_cond_signal(ptr noundef @cond)
  br label %42

42:                                               ; preds = %41, %38
  call void @uv_mutex_unlock(ptr noundef @mutex)
  br label %43

43:                                               ; preds = %42, %23
  ret void
}

; Function Attrs: nounwind uwtable
define dso_local void @uv__work_submit(ptr noundef %0, ptr noundef %1, i32 noundef %2, ptr noundef %3, ptr noundef %4) #0 {
  %6 = alloca ptr, align 8
  %7 = alloca ptr, align 8
  %8 = alloca i32, align 4
  %9 = alloca ptr, align 8
  %10 = alloca ptr, align 8
  store ptr %0, ptr %6, align 8, !tbaa !14
  store ptr %1, ptr %7, align 8, !tbaa !16
  store i32 %2, ptr %8, align 4, !tbaa !4
  store ptr %3, ptr %9, align 8, !tbaa !13
  store ptr %4, ptr %10, align 8, !tbaa !13
  call void @uv_once(ptr noundef @once, ptr noundef @init_once)
  %11 = load ptr, ptr %6, align 8, !tbaa !14
  %12 = load ptr, ptr %7, align 8, !tbaa !16
  %13 = getelementptr inbounds nuw %struct.uv__work, ptr %12, i32 0, i32 2
  store ptr %11, ptr %13, align 8, !tbaa !18
  %14 = load ptr, ptr %9, align 8, !tbaa !13
  %15 = load ptr, ptr %7, align 8, !tbaa !16
  %16 = getelementptr inbounds nuw %struct.uv__work, ptr %15, i32 0, i32 0
  store ptr %14, ptr %16, align 8, !tbaa !20
  %17 = load ptr, ptr %10, align 8, !tbaa !13
  %18 = load ptr, ptr %7, align 8, !tbaa !16
  %19 = getelementptr inbounds nuw %struct.uv__work, ptr %18, i32 0, i32 1
  store ptr %17, ptr %19, align 8, !tbaa !21
  %20 = load ptr, ptr %7, align 8, !tbaa !16
  %21 = getelementptr inbounds nuw %struct.uv__work, ptr %20, i32 0, i32 3
  %22 = load i32, ptr %8, align 4, !tbaa !4
  call void @post(ptr noundef %21, i32 noundef %22)
  ret void
}