; Function Attrs: nounwind uwtable
define dso_local void @uv__work_submit(ptr noundef %0, ptr noundef initializes((0, 24)) %1, i32 noundef %2, ptr noundef %3, ptr noundef %4) local_unnamed_addr #0 {
  tail call void @uv_once(ptr noundef nonnull @once, ptr noundef nonnull @init_once) #9
  %6 = getelementptr inbounds nuw i8, ptr %1, i64 16
  store ptr %0, ptr %6, align 8, !tbaa !14
  store ptr %3, ptr %1, align 8, !tbaa !17
  %7 = getelementptr inbounds nuw i8, ptr %1, i64 8
  store ptr %4, ptr %7, align 8, !tbaa !18
  %8 = getelementptr inbounds nuw i8, ptr %1, i64 24
  tail call void @uv_mutex_lock(ptr noundef nonnull @mutex) #9
  %9 = icmp eq i32 %2, 2
  br i1 %9, label %10, label %15

10:                                               ; preds = %5
  store ptr @slow_io_pending_wq, ptr %8, align 8, !tbaa !8
  %11 = load ptr, ptr getelementptr inbounds nuw (i8, ptr @slow_io_pending_wq, i64 8), align 8, !tbaa !8
  %12 = getelementptr inbounds nuw i8, ptr %1, i64 32
  store ptr %11, ptr %12, align 8, !tbaa !8
  store ptr %8, ptr %11, align 8, !tbaa !8
  store ptr %8, ptr getelementptr inbounds nuw (i8, ptr @slow_io_pending_wq, i64 8), align 8, !tbaa !8
  %13 = load ptr, ptr @run_slow_work_message, align 16, !tbaa !8
  %14 = icmp eq ptr %13, @run_slow_work_message
  br i1 %14, label %15, label %post.exit

15:                                               ; preds = %10, %5
  %.0.i = phi ptr [ %8, %5 ], [ @run_slow_work_message, %10 ]
  store ptr @wq, ptr %.0.i, align 8, !tbaa !8
  %16 = load ptr, ptr getelementptr inbounds nuw (i8, ptr @wq, i64 8), align 8, !tbaa !8
  %17 = getelementptr inbounds nuw i8, ptr %.0.i, i64 8
  store ptr %16, ptr %17, align 8, !tbaa !8
  store ptr %.0.i, ptr %16, align 8, !tbaa !8
  store ptr %.0.i, ptr getelementptr inbounds nuw (i8, ptr @wq, i64 8), align 8, !tbaa !8
  %18 = load i32, ptr @idle_threads, align 4, !tbaa !4
  %.not.i = icmp eq i32 %18, 0
  br i1 %.not.i, label %post.exit, label %19

19:                                               ; preds = %15
  tail call void @uv_cond_signal(ptr noundef nonnull @cond) #9
  br label %post.exit

post.exit:                                        ; preds = %10, %15, %19
  tail call void @uv_mutex_unlock(ptr noundef nonnull @mutex) #9
  ret void
}